target datalayout = "e-m:e-p270:32:32-p271:32:32-p272:64:64-i64:64-i128:128-f80:128-n8:16:32:64-S128"
target triple = "x86_64-unknown-linux-gnu"

%class.symbol = type { ptr }
%struct.static_features = type { ptr, %class.arith_util, %class.bv_util, %class.array_util, %class.fpa_util, %class.seq_util, i32, i32, i32, i32, i32, %class.ast_mark, %class.ast_mark, i8, i32, i32, i32, i32, i32, i32, i32, i32, i32, i32, i32, i32, i32, i32, i32, i32, i32, i32, i32, i32, i32, i32, i32, i32, i32, i32, i32, i32, i8, i8, i8, i8, i8, i8, i8, i8, i8, i8, %class.rational, i32, i32, i32, i32, i32, i32, i32, i32, i32, %class.svector.4, %class.svector.4, %class.svector.4, %class.svector.4, %class.svector.4, i32, %class.svector.4, %class.svector.4, i32, [4 x i8], %class.u_map, %class.u_map, %class.u_map, i32, %class.svector.10, %class.symbol, %class.symbol, %class.symbol, %class.svector.12 }
%class.arith_util = type { ptr, ptr }
%class.bv_util = type { %class.bv_recognizers, ptr, ptr }
%class.bv_recognizers = type { i32 }
%class.array_util = type { %class.array_recognizers, ptr }
%class.array_recognizers = type { i32 }
%class.fpa_util = type { ptr, ptr, i32, %class.arith_util, %class.bv_util }
%class.seq_util = type { ptr, ptr, ptr, i32, [4 x i8], %"class.seq_util::str", %"class.seq_util::rex" }
%"class.seq_util::str" = type <{ ptr, ptr, i32, [4 x i8] }>
%"class.seq_util::rex" = type { ptr, ptr, i32, %class.vector.6, %class.ref_vector, %"struct.seq_util::rex::info", %"struct.seq_util::rex::info" }
%class.vector.6 = type { ptr }
%"struct.seq_util::rex::info" = type { i32, i8, i32, i32 }
%class.rational = type { %class.mpq }
%class.mpq = type { %class.mpz, %class.mpz }
%class.mpz = type { i32, i8, ptr }
%class.u_map = type { %class.map }
%class.map = type { %class.table2map }
%class.table2map = type { %class.core_hashtable.8 }
%class.core_hashtable.8 = type <{ ptr, i32, i32, i32, [4 x i8] }>
%class.svector.12 = type { %class.vector.13 }
%class.vector.13 = type { ptr }
%class.ptr_vector = type { %class.vector.3 }
%class.vector.3 = type { ptr }
%class.svector.4 = type { %class.vector.5 }
%class.vector.5 = type { ptr }
%class.ref_vector = type { %class.ref_vector_core }
%class.ref_vector_core = type { %class.ref_manager_wrapper, %class.ptr_vector }
%class.ref_manager_wrapper = type { ptr }
%class.obj_mark = type { %struct.default_t2uint, %class.bit_vector }
%struct.default_t2uint = type { i8 }
%class.bit_vector = type { i32, i32, ptr }
%class.svector.10 = type { %class.vector.11 }
%class.vector.11 = type { ptr }
%class.ast_mark = type { ptr, %class.obj_mark, %class.obj_mark.7 }
%class.obj_mark.7 = type { %"struct.ast_mark::decl2uint", %class.bit_vector }
%"struct.ast_mark::decl2uint" = type { i8 }

; Function Attrs: mustprogress nounwind uwtable
define hidden noundef zeroext i1 @_ZN3smt8is_arithERK15static_features(ptr noundef nonnull align 8 dereferenceable(792) %st) #4 {
entry:
  %st.addr = alloca ptr, align 8
  store ptr %st, ptr %st.addr, align 8
  %0 = load ptr, ptr %st.addr, align 8
  %m_num_arith_ineqs = getelementptr inbounds %struct.static_features, ptr %0, i32 0, i32 55
  %1 = load i32, ptr %m_num_arith_ineqs, align 8
  %cmp = icmp ugt i32 %1, 0
  br i1 %cmp, label %lor.end, label %lor.lhs.false

lor.lhs.false:                                    ; preds = %entry
  %2 = load ptr, ptr %st.addr, align 8
  %m_num_arith_terms = getelementptr inbounds %struct.static_features, ptr %2, i32 0, i32 53
  %3 = load i32, ptr %m_num_arith_terms, align 8
  %cmp1 = icmp ugt i32 %3, 0
  br i1 %cmp1, label %lor.end, label %lor.rhs

lor.rhs:                                          ; preds = %lor.lhs.false
  %4 = load ptr, ptr %st.addr, align 8
  %m_num_arith_eqs = getelementptr inbounds %struct.static_features, ptr %4, i32 0, i32 54
  %5 = load i32, ptr %m_num_arith_eqs, align 4
  %cmp2 = icmp ugt i32 %5, 0
  br label %lor.end

lor.end:                                          ; preds = %lor.rhs, %lor.lhs.false, %entry
  %6 = phi i1 [ true, %lor.lhs.false ], [ true, %entry ], [ %cmp2, %lor.rhs ]
  ret i1 %6
}