; Function Attrs: mustprogress nofree norecurse nosync nounwind willreturn memory(argmem: read) uwtable
define hidden noundef zeroext i1 @_ZN3smt8is_arithERK15static_features(ptr nocapture noundef nonnull readonly align 8 dereferenceable(792) %st) local_unnamed_addr #6 {
entry:
  %m_num_arith_ineqs = getelementptr inbounds i8, ptr %st, i64 568
  %0 = load i32, ptr %m_num_arith_ineqs, align 8
  %cmp.not = icmp eq i32 %0, 0
  %m_num_arith_terms = getelementptr inbounds i8, ptr %st, i64 560
  %1 = load i32, ptr %m_num_arith_terms, align 8
  %cmp1.not = icmp eq i32 %1, 0
  %or.cond = select i1 %cmp.not, i1 %cmp1.not, i1 false
  br i1 %or.cond, label %lor.rhs, label %lor.end

lor.rhs:                                          ; preds = %entry
  %m_num_arith_eqs = getelementptr inbounds i8, ptr %st, i64 564
  %2 = load i32, ptr %m_num_arith_eqs, align 4
  %cmp2 = icmp ne i32 %2, 0
  br label %lor.end

lor.end:                                          ; preds = %lor.rhs, %entry
  %3 = phi i1 [ true, %entry ], [ %cmp2, %lor.rhs ]
  ret i1 %3
}